target datalayout = "e-m:e-p270:32:32-p271:32:32-p272:64:64-i64:64-i128:128-f80:128-n8:16:32:64-S128"
target triple = "x86_64-unknown-linux-gnu"

%"class.QuantLib::TypePayoff" = type <{ %"class.QuantLib::Payoff", i32, [4 x i8] }>
%"class.QuantLib::Payoff" = type { ptr }
%"class.QuantLib::TypePayoff.base" = type <{ %"class.QuantLib::Payoff", i32 }>
%"class.QuantLib::PathPricer" = type { ptr }
%"class.QuantLib::FloatingTypePayoff" = type { %"class.QuantLib::TypePayoff.base", [4 x i8] }
%"class.QuantLib::LookbackPartialFloatingPathPricer" = type { %"class.QuantLib::PathPricer", double, %"class.QuantLib::FloatingTypePayoff", double }

@_ZTVN8QuantLib10PathPricerINS_4PathEdEE = linkonce_odr unnamed_addr constant { [5 x ptr] } { [5 x ptr] [ptr null, ptr @_ZTIN8QuantLib10PathPricerINS_4PathEdEE, ptr @_ZN8QuantLib10PathPricerINS_4PathEdED2Ev, ptr @_ZN8QuantLib10PathPricerINS_4PathEdED0Ev, ptr @__cxa_pure_virtual] }, comdat, align 8
@_ZTVN8QuantLib10TypePayoffE = external unnamed_addr constant { [8 x ptr] }, align 8
@_ZTVN8QuantLib18FloatingTypePayoffE = external unnamed_addr constant { [8 x ptr] }, align 8

; Function Attrs: inlinehint mustprogress nounwind uwtable
define linkonce_odr void @_ZN8QuantLib6PayoffC2Ev(ptr noundef nonnull align 8 dereferenceable(8) %this) unnamed_addr #8 comdat align 2 {
entry:
  %this.addr = alloca ptr, align 8
  store ptr %this, ptr %this.addr, align 8, !tbaa !3
  %this1 = load ptr, ptr %this.addr, align 8
  store ptr getelementptr inbounds inrange(-16, 48) ({ [8 x ptr] }, ptr @_ZTVN8QuantLib6PayoffE, i32 0, i32 0, i32 2), ptr %this1, align 8, !tbaa !7
  ret void
}

; Function Attrs: mustprogress nounwind uwtable
define linkonce_odr void @_ZN8QuantLib10TypePayoffC2ENS_6Option4TypeE(ptr noundef nonnull align 8 dereferenceable(12) %this, i32 noundef %type) unnamed_addr #6 comdat align 2 {
entry:
  %this.addr = alloca ptr, align 8
  %type.addr = alloca i32, align 4
  store ptr %this, ptr %this.addr, align 8, !tbaa !3
  store i32 %type, ptr %type.addr, align 4, !tbaa !24
  %this1 = load ptr, ptr %this.addr, align 8
  call void @_ZN8QuantLib6PayoffC2Ev(ptr noundef nonnull align 8 dereferenceable(8) %this1) #17
  store ptr getelementptr inbounds inrange(-16, 48) ({ [8 x ptr] }, ptr @_ZTVN8QuantLib10TypePayoffE, i32 0, i32 0, i32 2), ptr %this1, align 8, !tbaa !7
  %type_ = getelementptr inbounds nuw %"class.QuantLib::TypePayoff", ptr %this1, i32 0, i32 1
  %0 = load i32, ptr %type.addr, align 4, !tbaa !24
  store i32 %0, ptr %type_, align 8, !tbaa !14
  ret void
}

; Function Attrs: mustprogress nounwind uwtable
define linkonce_odr void @_ZN8QuantLib10PathPricerINS_4PathEdED2Ev(ptr noundef nonnull align 8 dereferenceable(8) %this) unnamed_addr #6 comdat align 2 {
entry:
  %this.addr = alloca ptr, align 8
  store ptr %this, ptr %this.addr, align 8, !tbaa !3
  ret void
}

; Function Attrs: mustprogress nounwind uwtable
define linkonce_odr void @_ZN8QuantLib18FloatingTypePayoffC2ENS_6Option4TypeE(ptr noundef nonnull align 8 dereferenceable(12) %this, i32 noundef %type) unnamed_addr #6 comdat align 2 {
entry:
  %this.addr = alloca ptr, align 8
  %type.addr = alloca i32, align 4
  store ptr %this, ptr %this.addr, align 8, !tbaa !3
  store i32 %type, ptr %type.addr, align 4, !tbaa !24
  %this1 = load ptr, ptr %this.addr, align 8
  %0 = load i32, ptr %type.addr, align 4, !tbaa !24
  call void @_ZN8QuantLib10TypePayoffC2ENS_6Option4TypeE(ptr noundef nonnull align 8 dereferenceable(12) %this1, i32 noundef %0)
  store ptr getelementptr inbounds inrange(-16, 48) ({ [8 x ptr] }, ptr @_ZTVN8QuantLib18FloatingTypePayoffE, i32 0, i32 0, i32 2), ptr %this1, align 8, !tbaa !7
  ret void
}

; Function Attrs: inlinehint mustprogress nounwind uwtable
define linkonce_odr void @_ZN8QuantLib10PathPricerINS_4PathEdEC2Ev(ptr noundef nonnull align 8 dereferenceable(8) %this) unnamed_addr #8 comdat align 2 {
entry:
  %this.addr = alloca ptr, align 8
  store ptr %this, ptr %this.addr, align 8, !tbaa !3
  %this1 = load ptr, ptr %this.addr, align 8
  store ptr getelementptr inbounds inrange(-16, 24) ({ [5 x ptr] }, ptr @_ZTVN8QuantLib10PathPricerINS_4PathEdEE, i32 0, i32 0, i32 2), ptr %this1, align 8, !tbaa !7
  ret void
}

; Function Attrs: mustprogress uwtable
define void @_ZN8QuantLib33LookbackPartialFloatingPathPricerC2EdNS_6Option4TypeEd(ptr noundef nonnull align 8 dereferenceable(40) %this, double noundef %lookbackEnd, i32 noundef %type, double noundef %discount) unnamed_addr #4 align 2 personality ptr @__gxx_personality_v0 {
entry:
  %this.addr = alloca ptr, align 8
  %lookbackEnd.addr = alloca double, align 8
  %type.addr = alloca i32, align 4
  %discount.addr = alloca double, align 8
  %exn.slot = alloca ptr, align 8
  %ehselector.slot = alloca i32, align 4
  store ptr %this, ptr %this.addr, align 8, !tbaa !3
  store double %lookbackEnd, ptr %lookbackEnd.addr, align 8, !tbaa !9
  store i32 %type, ptr %type.addr, align 4, !tbaa !24
  store double %discount, ptr %discount.addr, align 8, !tbaa !9
  %this1 = load ptr, ptr %this.addr, align 8
  call void @_ZN8QuantLib10PathPricerINS_4PathEdEC2Ev(ptr noundef nonnull align 8 dereferenceable(8) %this1) #17
  store ptr getelementptr inbounds inrange(-16, 24) ({ [5 x ptr] }, ptr @_ZTVN8QuantLib33LookbackPartialFloatingPathPricerE, i32 0, i32 0, i32 2), ptr %this1, align 8, !tbaa !7
  %lookbackEnd_ = getelementptr inbounds nuw %"class.QuantLib::LookbackPartialFloatingPathPricer", ptr %this1, i32 0, i32 1
  %0 = load double, ptr %lookbackEnd.addr, align 8, !tbaa !9
  store double %0, ptr %lookbackEnd_, align 8, !tbaa !37
  %payoff_ = getelementptr inbounds nuw %"class.QuantLib::LookbackPartialFloatingPathPricer", ptr %this1, i32 0, i32 2
  %1 = load i32, ptr %type.addr, align 4, !tbaa !24
  invoke void @_ZN8QuantLib18FloatingTypePayoffC2ENS_6Option4TypeE(ptr noundef nonnull align 8 dereferenceable(12) %payoff_, i32 noundef %1)
          to label %invoke.cont unwind label %lpad

invoke.cont:                                      ; preds = %entry
  %discount_ = getelementptr inbounds nuw %"class.QuantLib::LookbackPartialFloatingPathPricer", ptr %this1, i32 0, i32 3
  %2 = load double, ptr %discount.addr, align 8, !tbaa !9
  store double %2, ptr %discount_, align 8, !tbaa !39
  ret void

lpad:                                             ; preds = %entry
  %3 = landingpad { ptr, i32 }
          cleanup
  %4 = extractvalue { ptr, i32 } %3, 0
  store ptr %4, ptr %exn.slot, align 8
  %5 = extractvalue { ptr, i32 } %3, 1
  store i32 %5, ptr %ehselector.slot, align 4
  call void @_ZN8QuantLib10PathPricerINS_4PathEdED2Ev(ptr noundef nonnull align 8 dereferenceable(8) %this1) #17
  br label %eh.resume

eh.resume:                                        ; preds = %lpad
  %exn = load ptr, ptr %exn.slot, align 8
  %sel = load i32, ptr %ehselector.slot, align 4
  %lpad.val = insertvalue { ptr, i32 } poison, ptr %exn, 0
  %lpad.val2 = insertvalue { ptr, i32 } %lpad.val, i32 %sel, 1
  resume { ptr, i32 } %lpad.val2
}