; Function Attrs: mustprogress nofree norecurse nosync nounwind willreturn memory(argmem: write) uwtable
define void @_ZN8QuantLib33LookbackPartialFloatingPathPricerC2EdNS_6Option4TypeEd(ptr nocapture noundef nonnull writeonly align 8 dereferenceable(40) %this, double noundef %lookbackEnd, i32 noundef %type, double noundef %discount) unnamed_addr #11 align 2 personality ptr @__gxx_personality_v0 {
entry:
  store ptr getelementptr inbounds inrange(-16, 24) (i8, ptr @_ZTVN8QuantLib33LookbackPartialFloatingPathPricerE, i64 16), ptr %this, align 8, !tbaa !14
  %lookbackEnd_ = getelementptr inbounds nuw i8, ptr %this, i64 8
  store double %lookbackEnd, ptr %lookbackEnd_, align 8, !tbaa !80
  %payoff_ = getelementptr inbounds nuw i8, ptr %this, i64 16
  %type_.i.i = getelementptr inbounds nuw i8, ptr %this, i64 24
  store i32 %type, ptr %type_.i.i, align 8, !tbaa !25
  store ptr getelementptr inbounds inrange(-16, 48) (i8, ptr @_ZTVN8QuantLib18FloatingTypePayoffE, i64 16), ptr %payoff_, align 8, !tbaa !14
  %discount_ = getelementptr inbounds nuw i8, ptr %this, i64 32
  store double %discount, ptr %discount_, align 8, !tbaa !82
  ret void
}